; Function Attrs: nounwind uwtable
define dso_local noalias noundef ptr @php_password_algo_extract_ident(ptr noundef %0) local_unnamed_addr #0 {
  %.not = icmp eq ptr %0, null
  br i1 %.not, label %21, label %2

2:                                                ; preds = %1
  %3 = getelementptr inbounds i8, ptr %0, i64 16
  %4 = load i64, ptr %3, align 8
  %5 = icmp ult i64 %4, 3
  br i1 %5, label %21, label %6

6:                                                ; preds = %2
  %7 = getelementptr inbounds i8, ptr %0, i64 25
  %8 = tail call ptr @strchr(ptr noundef nonnull dereferenceable(1) %7, i32 noundef 36) #11
  %.not65 = icmp eq ptr %8, null
  br i1 %.not65, label %21, label %9

9:                                                ; preds = %6
  %10 = ptrtoint ptr %8 to i64
  %11 = ptrtoint ptr %7 to i64
  %12 = sub i64 %10, %11
  %13 = and i64 %12, -8
  %14 = add i64 %13, 32
  %15 = tail call noalias ptr @_emalloc(i64 noundef %14) #13
  store i32 1, ptr %15, align 4
  %16 = getelementptr inbounds i8, ptr %15, i64 4
  store i32 22, ptr %16, align 4
  %17 = getelementptr inbounds i8, ptr %15, i64 8
  store i64 0, ptr %17, align 8
  %18 = getelementptr inbounds i8, ptr %15, i64 16
  store i64 %12, ptr %18, align 8
  %19 = getelementptr inbounds i8, ptr %15, i64 24
  tail call void @llvm.memcpy.p0.p0.i64(ptr nonnull align 8 %19, ptr nonnull align 1 %7, i64 %12, i1 false)
  %20 = getelementptr inbounds [1 x i8], ptr %19, i64 0, i64 %12
  store i8 0, ptr %20, align 1
  br label %21

21:                                               ; preds = %6, %1, %2, %9
  %.0 = phi ptr [ %15, %9 ], [ null, %2 ], [ null, %1 ], [ null, %6 ]
  ret ptr %.0
}